(iId3Util
DecisionNode
p1
(dp2
S'split_attr_dict'
p3
(dp4
S'reduced'
p5
(iId3Util
DecisionNode
p6
(dp7
g3
NsS'tag'
p8
S'0'
sS'nodetype'
p9
S'Leaf'
p10
sS'split_attr_index'
p11
I-1
sbsS'normal'
p12
(iId3Util
DecisionNode
p13
(dp14
g3
(dp15
S'yes'
p16
(iId3Util
DecisionNode
p17
(dp18
g3
(dp19
S'hyper'
p20
(iId3Util
DecisionNode
p21
(dp22
g3
(dp23
S'pre'
p24
(iId3Util
DecisionNode
p25
(dp26
g3
Nsg8
S'0'
sg9
g10
sg11
I-1
sbsS'presbyopic'
p27
(iId3Util
DecisionNode
p28
(dp29
g3
Nsg8
S'0'
sg9
g10
sg11
I-1
sbsS'young'
p30
(iId3Util
DecisionNode
p31
(dp32
g3
Nsg8
S'1'
sg9
g10
sg11
I-1
sbssg8
S'XX'
p33
sg9
S'Tree'
p34
sg11
I0
sbsS'myope'
p35
(iId3Util
DecisionNode
p36
(dp37
g3
Nsg8
S'1'
sg9
g10
sg11
I-1
sbssg8
g33
sg9
g34
sg11
I1
sbsS'no'
p38
(iId3Util
DecisionNode
p39
(dp40
g3
(dp41
S'pre'
p42
(iId3Util
DecisionNode
p43
(dp44
g3
Nsg8
S'2'
sg9
g10
sg11
I-1
sbsS'presbyopic'
p45
(iId3Util
DecisionNode
p46
(dp47
g3
(dp48
S'hyper'
p49
(iId3Util
DecisionNode
p50
(dp51
g3
Nsg8
S'2'
sg9
g10
sg11
I-1
sbsS'myope'
p52
(iId3Util
DecisionNode
p53
(dp54
g3
Nsg8
S'0'
sg9
g10
sg11
I-1
sbssg8
g33
sg9
g34
sg11
I0
sbsS'young'
p55
(iId3Util
DecisionNode
p56
(dp57
g3
Nsg8
S'2'
sg9
g10
sg11
I-1
sbssg8
g33
sg9
g34
sg11
I0
sbssg8
g33
sg9
g34
sg11
I2
sbssg8
g33
sg9
g34
sg11
I3
sb.